target datalayout = "e-m:e-p270:32:32-p271:32:32-p272:64:64-i64:64-i128:128-f80:128-n8:16:32:64-S128"
target triple = "x86_64-pc-linux-gnu"

; Function Attrs: alwaysinline nounwind willreturn memory(none) uwtable
define internal zeroext i8 @av_clip_uint8_c(i32 noundef %0) #7 {
  %2 = alloca i8, align 1
  %3 = alloca i32, align 4
  store i32 %0, ptr %3, align 4, !tbaa !55
  %4 = load i32, ptr %3, align 4, !tbaa !55
  %5 = and i32 %4, -256
  %6 = icmp ne i32 %5, 0
  br i1 %6, label %7, label %12

7:                                                ; preds = %1
  %8 = load i32, ptr %3, align 4, !tbaa !55
  %9 = xor i32 %8, -1
  %10 = ashr i32 %9, 31
  %11 = trunc i32 %10 to i8
  store i8 %11, ptr %2, align 1
  br label %15

12:                                               ; preds = %1
  %13 = load i32, ptr %3, align 4, !tbaa !55
  %14 = trunc i32 %13 to i8
  store i8 %14, ptr %2, align 1
  br label %15

15:                                               ; preds = %12, %7
  %16 = load i8, ptr %2, align 1
  ret i8 %16
}

; Function Attrs: alwaysinline nounwind uwtable
define internal zeroext i8 @clamp_add_subtract_half(i32 noundef %0, i32 noundef %1, i32 noundef %2) #4 {
  %4 = alloca i32, align 4
  %5 = alloca i32, align 4
  %6 = alloca i32, align 4
  %7 = alloca i32, align 4
  store i32 %0, ptr %4, align 4, !tbaa !55
  store i32 %1, ptr %5, align 4, !tbaa !55
  store i32 %2, ptr %6, align 4, !tbaa !55
  call void @llvm.lifetime.start.p0(i64 4, ptr %7) #11
  %8 = load i32, ptr %4, align 4, !tbaa !55
  %9 = load i32, ptr %5, align 4, !tbaa !55
  %10 = add nsw i32 %8, %9
  %11 = ashr i32 %10, 1
  store i32 %11, ptr %7, align 4, !tbaa !55
  %12 = load i32, ptr %7, align 4, !tbaa !55
  %13 = load i32, ptr %7, align 4, !tbaa !55
  %14 = load i32, ptr %6, align 4, !tbaa !55
  %15 = sub nsw i32 %13, %14
  %16 = sdiv i32 %15, 2
  %17 = add nsw i32 %12, %16
  %18 = call zeroext i8 @av_clip_uint8_c(i32 noundef %17) #13
  call void @llvm.lifetime.end.p0(i64 4, ptr %7) #11
  ret i8 %18
}

; Function Attrs: nounwind uwtable
define internal void @inv_predict_13(ptr noundef %0, ptr noundef %1, ptr noundef %2, ptr noundef %3, ptr noundef %4) #1 {
  %6 = alloca ptr, align 8
  %7 = alloca ptr, align 8
  %8 = alloca ptr, align 8
  %9 = alloca ptr, align 8
  %10 = alloca ptr, align 8
  store ptr %0, ptr %6, align 8, !tbaa !82
  store ptr %1, ptr %7, align 8, !tbaa !82
  store ptr %2, ptr %8, align 8, !tbaa !82
  store ptr %3, ptr %9, align 8, !tbaa !82
  store ptr %4, ptr %10, align 8, !tbaa !82
  %11 = load ptr, ptr %7, align 8, !tbaa !82
  %12 = getelementptr inbounds i8, ptr %11, i64 0
  %13 = load i8, ptr %12, align 1, !tbaa !76
  %14 = zext i8 %13 to i32
  %15 = load ptr, ptr %9, align 8, !tbaa !82
  %16 = getelementptr inbounds i8, ptr %15, i64 0
  %17 = load i8, ptr %16, align 1, !tbaa !76
  %18 = zext i8 %17 to i32
  %19 = load ptr, ptr %8, align 8, !tbaa !82
  %20 = getelementptr inbounds i8, ptr %19, i64 0
  %21 = load i8, ptr %20, align 1, !tbaa !76
  %22 = zext i8 %21 to i32
  %23 = call zeroext i8 @clamp_add_subtract_half(i32 noundef %14, i32 noundef %18, i32 noundef %22)
  %24 = load ptr, ptr %6, align 8, !tbaa !82
  %25 = getelementptr inbounds i8, ptr %24, i64 0
  store i8 %23, ptr %25, align 1, !tbaa !76
  %26 = load ptr, ptr %7, align 8, !tbaa !82
  %27 = getelementptr inbounds i8, ptr %26, i64 1
  %28 = load i8, ptr %27, align 1, !tbaa !76
  %29 = zext i8 %28 to i32
  %30 = load ptr, ptr %9, align 8, !tbaa !82
  %31 = getelementptr inbounds i8, ptr %30, i64 1
  %32 = load i8, ptr %31, align 1, !tbaa !76
  %33 = zext i8 %32 to i32
  %34 = load ptr, ptr %8, align 8, !tbaa !82
  %35 = getelementptr inbounds i8, ptr %34, i64 1
  %36 = load i8, ptr %35, align 1, !tbaa !76
  %37 = zext i8 %36 to i32
  %38 = call zeroext i8 @clamp_add_subtract_half(i32 noundef %29, i32 noundef %33, i32 noundef %37)
  %39 = load ptr, ptr %6, align 8, !tbaa !82
  %40 = getelementptr inbounds i8, ptr %39, i64 1
  store i8 %38, ptr %40, align 1, !tbaa !76
  %41 = load ptr, ptr %7, align 8, !tbaa !82
  %42 = getelementptr inbounds i8, ptr %41, i64 2
  %43 = load i8, ptr %42, align 1, !tbaa !76
  %44 = zext i8 %43 to i32
  %45 = load ptr, ptr %9, align 8, !tbaa !82
  %46 = getelementptr inbounds i8, ptr %45, i64 2
  %47 = load i8, ptr %46, align 1, !tbaa !76
  %48 = zext i8 %47 to i32
  %49 = load ptr, ptr %8, align 8, !tbaa !82
  %50 = getelementptr inbounds i8, ptr %49, i64 2
  %51 = load i8, ptr %50, align 1, !tbaa !76
  %52 = zext i8 %51 to i32
  %53 = call zeroext i8 @clamp_add_subtract_half(i32 noundef %44, i32 noundef %48, i32 noundef %52)
  %54 = load ptr, ptr %6, align 8, !tbaa !82
  %55 = getelementptr inbounds i8, ptr %54, i64 2
  store i8 %53, ptr %55, align 1, !tbaa !76
  %56 = load ptr, ptr %7, align 8, !tbaa !82
  %57 = getelementptr inbounds i8, ptr %56, i64 3
  %58 = load i8, ptr %57, align 1, !tbaa !76
  %59 = zext i8 %58 to i32
  %60 = load ptr, ptr %9, align 8, !tbaa !82
  %61 = getelementptr inbounds i8, ptr %60, i64 3
  %62 = load i8, ptr %61, align 1, !tbaa !76
  %63 = zext i8 %62 to i32
  %64 = load ptr, ptr %8, align 8, !tbaa !82
  %65 = getelementptr inbounds i8, ptr %64, i64 3
  %66 = load i8, ptr %65, align 1, !tbaa !76
  %67 = zext i8 %66 to i32
  %68 = call zeroext i8 @clamp_add_subtract_half(i32 noundef %59, i32 noundef %63, i32 noundef %67)
  %69 = load ptr, ptr %6, align 8, !tbaa !82
  %70 = getelementptr inbounds i8, ptr %69, i64 3
  store i8 %68, ptr %70, align 1, !tbaa !76
  ret void
}