; Function Attrs: mustprogress nofree norecurse nosync nounwind willreturn memory(argmem: readwrite) uwtable
define internal void @inv_predict_13(ptr noundef writeonly captures(none) initializes((0, 4)) %0, ptr noundef readonly captures(none) %1, ptr noundef readonly captures(none) %2, ptr noundef readonly captures(none) %3, ptr readnone captures(none) %4) #7 {
  %6 = load i8, ptr %1, align 1, !tbaa !59
  %7 = zext i8 %6 to i32
  %8 = load i8, ptr %3, align 1, !tbaa !59
  %9 = zext i8 %8 to i32
  %10 = load i8, ptr %2, align 1, !tbaa !59
  %11 = zext i8 %10 to i32
  %12 = add nuw nsw i32 %9, %7
  %13 = lshr i32 %12, 1
  %14 = sub nsw i32 %13, %11
  %.lhs.trunc = trunc nsw i32 %14 to i16
  %15 = sdiv i16 %.lhs.trunc, 2
  %.sext = sext i16 %15 to i32
  %16 = add nsw i32 %13, %.sext
  %.not.i.i = icmp ult i32 %16, 256
  %isnotneg.i.i = icmp sgt i32 %16, -1
  %17 = sext i1 %isnotneg.i.i to i8
  %18 = trunc nuw i32 %16 to i8
  %.0.i.i = select i1 %.not.i.i, i8 %18, i8 %17
  store i8 %.0.i.i, ptr %0, align 1, !tbaa !59
  %19 = getelementptr inbounds nuw i8, ptr %1, i64 1
  %20 = load i8, ptr %19, align 1, !tbaa !59
  %21 = zext i8 %20 to i32
  %22 = getelementptr inbounds nuw i8, ptr %3, i64 1
  %23 = load i8, ptr %22, align 1, !tbaa !59
  %24 = zext i8 %23 to i32
  %25 = getelementptr inbounds nuw i8, ptr %2, i64 1
  %26 = load i8, ptr %25, align 1, !tbaa !59
  %27 = zext i8 %26 to i32
  %28 = add nuw nsw i32 %24, %21
  %29 = lshr i32 %28, 1
  %30 = sub nsw i32 %29, %27
  %.lhs.trunc25 = trunc nsw i32 %30 to i16
  %31 = sdiv i16 %.lhs.trunc25, 2
  %.sext26 = sext i16 %31 to i32
  %32 = add nsw i32 %29, %.sext26
  %.not.i.i16 = icmp ult i32 %32, 256
  %isnotneg.i.i17 = icmp sgt i32 %32, -1
  %33 = sext i1 %isnotneg.i.i17 to i8
  %34 = trunc nuw i32 %32 to i8
  %.0.i.i18 = select i1 %.not.i.i16, i8 %34, i8 %33
  %35 = getelementptr inbounds nuw i8, ptr %0, i64 1
  store i8 %.0.i.i18, ptr %35, align 1, !tbaa !59
  %36 = getelementptr inbounds nuw i8, ptr %1, i64 2
  %37 = load i8, ptr %36, align 1, !tbaa !59
  %38 = zext i8 %37 to i32
  %39 = getelementptr inbounds nuw i8, ptr %3, i64 2
  %40 = load i8, ptr %39, align 1, !tbaa !59
  %41 = zext i8 %40 to i32
  %42 = getelementptr inbounds nuw i8, ptr %2, i64 2
  %43 = load i8, ptr %42, align 1, !tbaa !59
  %44 = zext i8 %43 to i32
  %45 = add nuw nsw i32 %41, %38
  %46 = lshr i32 %45, 1
  %47 = sub nsw i32 %46, %44
  %.lhs.trunc27 = trunc nsw i32 %47 to i16
  %48 = sdiv i16 %.lhs.trunc27, 2
  %.sext28 = sext i16 %48 to i32
  %49 = add nsw i32 %46, %.sext28
  %.not.i.i19 = icmp ult i32 %49, 256
  %isnotneg.i.i20 = icmp sgt i32 %49, -1
  %50 = sext i1 %isnotneg.i.i20 to i8
  %51 = trunc nuw i32 %49 to i8
  %.0.i.i21 = select i1 %.not.i.i19, i8 %51, i8 %50
  %52 = getelementptr inbounds nuw i8, ptr %0, i64 2
  store i8 %.0.i.i21, ptr %52, align 1, !tbaa !59
  %53 = getelementptr inbounds nuw i8, ptr %1, i64 3
  %54 = load i8, ptr %53, align 1, !tbaa !59
  %55 = zext i8 %54 to i32
  %56 = getelementptr inbounds nuw i8, ptr %3, i64 3
  %57 = load i8, ptr %56, align 1, !tbaa !59
  %58 = zext i8 %57 to i32
  %59 = getelementptr inbounds nuw i8, ptr %2, i64 3
  %60 = load i8, ptr %59, align 1, !tbaa !59
  %61 = zext i8 %60 to i32
  %62 = add nuw nsw i32 %58, %55
  %63 = lshr i32 %62, 1
  %64 = sub nsw i32 %63, %61
  %.lhs.trunc29 = trunc nsw i32 %64 to i16
  %65 = sdiv i16 %.lhs.trunc29, 2
  %.sext30 = sext i16 %65 to i32
  %66 = add nsw i32 %63, %.sext30
  %.not.i.i22 = icmp ult i32 %66, 256
  %isnotneg.i.i23 = icmp sgt i32 %66, -1
  %67 = sext i1 %isnotneg.i.i23 to i8
  %68 = trunc nuw i32 %66 to i8
  %.0.i.i24 = select i1 %.not.i.i22, i8 %68, i8 %67
  %69 = getelementptr inbounds nuw i8, ptr %0, i64 3
  store i8 %.0.i.i24, ptr %69, align 1, !tbaa !59
  ret void
}